target datalayout = "e-m:e-p270:32:32-p271:32:32-p272:64:64-i64:64-i128:128-f80:128-n8:16:32:64-S128"
target triple = "x86_64-pc-linux-gnu"

%struct.ASN1_TEMPLATE_st = type { i64, i64, i64, ptr, ptr }

@.str = private unnamed_addr constant [126 x i8] c"generated/home/dtcxzyw/WorkSpace/Projects/compilers/llvm-opt-benchmark/bench/libquic/libquic/boringssl/crypto/asn1/tasn_dec.c\00", align 1

; Function Attrs: nounwind uwtable
define internal i32 @asn1_check_eoc(ptr noundef %0, i64 noundef %1) #0 {
  %3 = alloca i32, align 4
  %4 = alloca ptr, align 8
  %5 = alloca i64, align 8
  %6 = alloca ptr, align 8
  %7 = alloca i32, align 4
  store ptr %0, ptr %4, align 8, !tbaa !15
  store i64 %1, ptr %5, align 8, !tbaa !10
  call void @llvm.lifetime.start.p0(i64 8, ptr %6) #6
  %8 = load i64, ptr %5, align 8, !tbaa !10
  %9 = icmp slt i64 %8, 2
  br i1 %9, label %10, label %11

10:                                               ; preds = %2
  store i32 0, ptr %3, align 4
  store i32 1, ptr %7, align 4
  br label %28

11:                                               ; preds = %2
  %12 = load ptr, ptr %4, align 8, !tbaa !15
  %13 = load ptr, ptr %12, align 8, !tbaa !33
  store ptr %13, ptr %6, align 8, !tbaa !33
  %14 = load ptr, ptr %6, align 8, !tbaa !33
  %15 = getelementptr inbounds i8, ptr %14, i64 0
  %16 = load i8, ptr %15, align 1, !tbaa !23
  %17 = icmp ne i8 %16, 0
  br i1 %17, label %27, label %18

18:                                               ; preds = %11
  %19 = load ptr, ptr %6, align 8, !tbaa !33
  %20 = getelementptr inbounds i8, ptr %19, i64 1
  %21 = load i8, ptr %20, align 1, !tbaa !23
  %22 = icmp ne i8 %21, 0
  br i1 %22, label %27, label %23

23:                                               ; preds = %18
  %24 = load ptr, ptr %4, align 8, !tbaa !15
  %25 = load ptr, ptr %24, align 8, !tbaa !33
  %26 = getelementptr inbounds i8, ptr %25, i64 2
  store ptr %26, ptr %24, align 8, !tbaa !33
  store i32 1, ptr %3, align 4
  store i32 1, ptr %7, align 4
  br label %28

27:                                               ; preds = %18, %11
  store i32 0, ptr %3, align 4
  store i32 1, ptr %7, align 4
  br label %28

28:                                               ; preds = %27, %23, %10
  call void @llvm.lifetime.end.p0(i64 8, ptr %6) #6
  %29 = load i32, ptr %3, align 4
  ret i32 %29
}

; Function Attrs: nounwind uwtable
define internal i32 @asn1_template_ex_d2i(ptr noundef %0, ptr noundef %1, i64 noundef %2, ptr noundef %3, i8 noundef signext %4, ptr noundef %5) #0 {
  %7 = alloca i32, align 4
  %8 = alloca ptr, align 8
  %9 = alloca ptr, align 8
  %10 = alloca i64, align 8
  %11 = alloca ptr, align 8
  %12 = alloca i8, align 1
  %13 = alloca ptr, align 8
  %14 = alloca i32, align 4
  %15 = alloca i32, align 4
  %16 = alloca i32, align 4
  %17 = alloca i64, align 8
  %18 = alloca ptr, align 8
  %19 = alloca ptr, align 8
  %20 = alloca i8, align 1
  %21 = alloca i32, align 4
  %22 = alloca i8, align 1
  store ptr %0, ptr %8, align 8, !tbaa !12
  store ptr %1, ptr %9, align 8, !tbaa !15
  store i64 %2, ptr %10, align 8, !tbaa !10
  store ptr %3, ptr %11, align 8, !tbaa !26
  store i8 %4, ptr %12, align 1, !tbaa !23
  store ptr %5, ptr %13, align 8, !tbaa !24
  call void @llvm.lifetime.start.p0(i64 4, ptr %14) #6
  call void @llvm.lifetime.start.p0(i64 4, ptr %15) #6
  call void @llvm.lifetime.start.p0(i64 4, ptr %16) #6
  call void @llvm.lifetime.start.p0(i64 8, ptr %17) #6
  call void @llvm.lifetime.start.p0(i64 8, ptr %18) #6
  call void @llvm.lifetime.start.p0(i64 8, ptr %19) #6
  call void @llvm.lifetime.start.p0(i64 1, ptr %20) #6
  %23 = load ptr, ptr %8, align 8, !tbaa !12
  %24 = icmp ne ptr %23, null
  br i1 %24, label %26, label %25

25:                                               ; preds = %6
  store i32 0, ptr %7, align 4
  store i32 1, ptr %21, align 4
  br label %109

26:                                               ; preds = %6
  %27 = load ptr, ptr %11, align 8, !tbaa !26
  %28 = getelementptr inbounds nuw %struct.ASN1_TEMPLATE_st, ptr %27, i32 0, i32 0
  %29 = load i64, ptr %28, align 8, !tbaa !52
  %30 = trunc i64 %29 to i32
  store i32 %30, ptr %14, align 4, !tbaa !6
  %31 = load i32, ptr %14, align 4, !tbaa !6
  %32 = and i32 %31, 192
  store i32 %32, ptr %15, align 4, !tbaa !6
  %33 = load ptr, ptr %9, align 8, !tbaa !15
  %34 = load ptr, ptr %33, align 8, !tbaa !33
  store ptr %34, ptr %18, align 8, !tbaa !33
  %35 = load i32, ptr %14, align 4, !tbaa !6
  %36 = and i32 %35, 16
  %37 = icmp ne i32 %36, 0
  br i1 %37, label %38, label %95

38:                                               ; preds = %26
  call void @llvm.lifetime.start.p0(i64 1, ptr %22) #6
  %39 = load i64, ptr %10, align 8, !tbaa !10
  %40 = load ptr, ptr %11, align 8, !tbaa !26
  %41 = getelementptr inbounds nuw %struct.ASN1_TEMPLATE_st, ptr %40, i32 0, i32 1
  %42 = load i64, ptr %41, align 8, !tbaa !59
  %43 = trunc i64 %42 to i32
  %44 = load i32, ptr %15, align 4, !tbaa !6
  %45 = load i8, ptr %12, align 1, !tbaa !23
  %46 = load ptr, ptr %13, align 8, !tbaa !24
  %47 = call i32 @asn1_check_tlen(ptr noundef %17, ptr noundef null, ptr noundef null, ptr noundef %20, ptr noundef %22, ptr noundef %18, i64 noundef %39, i32 noundef %43, i32 noundef %44, i8 noundef signext %45, ptr noundef %46)
  store i32 %47, ptr %16, align 4, !tbaa !6
  %48 = load ptr, ptr %18, align 8, !tbaa !33
  store ptr %48, ptr %19, align 8, !tbaa !33
  %49 = load i32, ptr %16, align 4, !tbaa !6
  %50 = icmp ne i32 %49, 0
  br i1 %50, label %52, label %51

51:                                               ; preds = %38
  call void @ERR_put_error(i32 noundef 12, i32 noundef 0, i32 noundef 158, ptr noundef @.str, i32 noundef 547)
  store i32 0, ptr %7, align 4
  store i32 1, ptr %21, align 4
  br label %92

52:                                               ; preds = %38
  %53 = load i32, ptr %16, align 4, !tbaa !6
  %54 = icmp eq i32 %53, -1
  br i1 %54, label %55, label %56

55:                                               ; preds = %52
  store i32 -1, ptr %7, align 4
  store i32 1, ptr %21, align 4
  br label %92

56:                                               ; preds = %52
  br label %57

57:                                               ; preds = %56
  %58 = load i8, ptr %22, align 1, !tbaa !23
  %59 = icmp ne i8 %58, 0
  br i1 %59, label %61, label %60

60:                                               ; preds = %57
  call void @ERR_put_error(i32 noundef 12, i32 noundef 0, i32 noundef 120, ptr noundef @.str, i32 noundef 552)
  store i32 0, ptr %7, align 4
  store i32 1, ptr %21, align 4
  br label %92

61:                                               ; preds = %57
  %62 = load ptr, ptr %8, align 8, !tbaa !12
  %63 = load i64, ptr %17, align 8, !tbaa !10
  %64 = load ptr, ptr %11, align 8, !tbaa !26
  %65 = load ptr, ptr %13, align 8, !tbaa !24
  %66 = call i32 @asn1_template_noexp_d2i(ptr noundef %62, ptr noundef %18, i64 noundef %63, ptr noundef %64, i8 noundef signext 0, ptr noundef %65)
  store i32 %66, ptr %16, align 4, !tbaa !6
  %67 = load i32, ptr %16, align 4, !tbaa !6
  %68 = icmp ne i32 %67, 0
  br i1 %68, label %70, label %69

69:                                               ; preds = %61
  call void @ERR_put_error(i32 noundef 12, i32 noundef 0, i32 noundef 158, ptr noundef @.str, i32 noundef 558)
  store i32 0, ptr %7, align 4
  store i32 1, ptr %21, align 4
  br label %92

70:                                               ; preds = %61
  %71 = load ptr, ptr %18, align 8, !tbaa !33
  %72 = load ptr, ptr %19, align 8, !tbaa !33
  %73 = ptrtoint ptr %71 to i64
  %74 = ptrtoint ptr %72 to i64
  %75 = sub i64 %73, %74
  %76 = load i64, ptr %17, align 8, !tbaa !10
  %77 = sub nsw i64 %76, %75
  store i64 %77, ptr %17, align 8, !tbaa !10
  %78 = load i8, ptr %20, align 1, !tbaa !23
  %79 = icmp ne i8 %78, 0
  br i1 %79, label %80, label %86

80:                                               ; preds = %70
  %81 = load i64, ptr %17, align 8, !tbaa !10
  %82 = call i32 @asn1_check_eoc(ptr noundef %18, i64 noundef %81)
  %83 = icmp ne i32 %82, 0
  br i1 %83, label %85, label %84

84:                                               ; preds = %80
  call void @ERR_put_error(i32 noundef 12, i32 noundef 0, i32 noundef 153, ptr noundef @.str, i32 noundef 566)
  store i32 2, ptr %21, align 4
  br label %92

85:                                               ; preds = %80
  br label %91

86:                                               ; preds = %70
  %87 = load i64, ptr %17, align 8, !tbaa !10
  %88 = icmp ne i64 %87, 0
  br i1 %88, label %89, label %90

89:                                               ; preds = %86
  call void @ERR_put_error(i32 noundef 12, i32 noundef 0, i32 noundef 119, ptr noundef @.str, i32 noundef 574)
  store i32 2, ptr %21, align 4
  br label %92

90:                                               ; preds = %86
  br label %91

91:                                               ; preds = %90, %85
  store i32 0, ptr %21, align 4
  br label %92

92:                                               ; preds = %89, %84, %91, %69, %60, %55, %51
  call void @llvm.lifetime.end.p0(i64 1, ptr %22) #6
  %93 = load i32, ptr %21, align 4
  switch i32 %93, label %109 [
    i32 0, label %94
    i32 2, label %106
  ]

94:                                               ; preds = %92
  br label %103

95:                                               ; preds = %26
  %96 = load ptr, ptr %8, align 8, !tbaa !12
  %97 = load ptr, ptr %9, align 8, !tbaa !15
  %98 = load i64, ptr %10, align 8, !tbaa !10
  %99 = load ptr, ptr %11, align 8, !tbaa !26
  %100 = load i8, ptr %12, align 1, !tbaa !23
  %101 = load ptr, ptr %13, align 8, !tbaa !24
  %102 = call i32 @asn1_template_noexp_d2i(ptr noundef %96, ptr noundef %97, i64 noundef %98, ptr noundef %99, i8 noundef signext %100, ptr noundef %101)
  store i32 %102, ptr %7, align 4
  store i32 1, ptr %21, align 4
  br label %109

103:                                              ; preds = %94
  %104 = load ptr, ptr %18, align 8, !tbaa !33
  %105 = load ptr, ptr %9, align 8, !tbaa !15
  store ptr %104, ptr %105, align 8, !tbaa !33
  store i32 1, ptr %7, align 4
  store i32 1, ptr %21, align 4
  br label %109

106:                                              ; preds = %92
  %107 = load ptr, ptr %8, align 8, !tbaa !12
  %108 = load ptr, ptr %11, align 8, !tbaa !26
  call void @ASN1_template_free(ptr noundef %107, ptr noundef %108)
  store i32 0, ptr %7, align 4
  store i32 1, ptr %21, align 4
  br label %109

109:                                              ; preds = %106, %103, %95, %92, %25
  call void @llvm.lifetime.end.p0(i64 1, ptr %20) #6
  call void @llvm.lifetime.end.p0(i64 8, ptr %19) #6
  call void @llvm.lifetime.end.p0(i64 8, ptr %18) #6
  call void @llvm.lifetime.end.p0(i64 8, ptr %17) #6
  call void @llvm.lifetime.end.p0(i64 4, ptr %16) #6
  call void @llvm.lifetime.end.p0(i64 4, ptr %15) #6
  call void @llvm.lifetime.end.p0(i64 4, ptr %14) #6
  %110 = load i32, ptr %7, align 4
  ret i32 %110
}