; Function Attrs: nounwind uwtable
define internal fastcc i32 @asn1_template_ex_d2i(ptr noundef %0, ptr noundef captures(none) %1, i64 noundef %2, ptr noundef %3, i8 noundef signext %4, ptr noundef %5) unnamed_addr #1 {
  %7 = alloca i64, align 8
  %8 = alloca ptr, align 8
  %9 = alloca i8, align 1
  %10 = alloca i8, align 1
  call void @llvm.lifetime.start.p0(i64 8, ptr nonnull %7) #7
  call void @llvm.lifetime.start.p0(i64 8, ptr nonnull %8) #7
  call void @llvm.lifetime.start.p0(i64 1, ptr nonnull %9) #7
  %.not = icmp eq ptr %0, null
  br i1 %.not, label %54, label %11

11:                                               ; preds = %6
  %12 = load i64, ptr %3, align 8, !tbaa !36
  %13 = trunc i64 %12 to i32
  %14 = load ptr, ptr %1, align 8, !tbaa !20
  store ptr %14, ptr %8, align 8, !tbaa !20
  %15 = and i32 %13, 16
  %.not30 = icmp eq i32 %15, 0
  br i1 %.not30, label %49, label %16

16:                                               ; preds = %11
  %17 = and i32 %13, 192
  call void @llvm.lifetime.start.p0(i64 1, ptr nonnull %10) #7
  %18 = getelementptr inbounds nuw i8, ptr %3, i64 8
  %19 = load i64, ptr %18, align 8, !tbaa !44
  %20 = trunc i64 %19 to i32
  %21 = call fastcc i32 @asn1_check_tlen(ptr noundef nonnull %7, ptr noundef null, ptr noundef null, ptr noundef nonnull %9, ptr noundef nonnull %10, ptr noundef %8, i64 noundef %2, i32 noundef %20, i32 noundef %17, i8 noundef signext %4, ptr noundef %5)
  %22 = load ptr, ptr %8, align 8, !tbaa !20
  switch i32 %21, label %24 [
    i32 0, label %23
    i32 -1, label %.thread
  ]

23:                                               ; preds = %16
  call void @ERR_put_error(i32 noundef 12, i32 noundef 0, i32 noundef 158, ptr noundef nonnull @.str, i32 noundef 547) #7
  br label %.thread

24:                                               ; preds = %16
  %25 = load i8, ptr %10, align 1, !tbaa !25
  %.not32 = icmp eq i8 %25, 0
  br i1 %.not32, label %26, label %27

26:                                               ; preds = %24
  call void @ERR_put_error(i32 noundef 12, i32 noundef 0, i32 noundef 120, ptr noundef nonnull @.str, i32 noundef 552) #7
  br label %.thread

27:                                               ; preds = %24
  %28 = load i64, ptr %7, align 8, !tbaa !6
  %29 = call fastcc i32 @asn1_template_noexp_d2i(ptr noundef %0, ptr noundef nonnull %8, i64 noundef %28, ptr noundef nonnull %3, i8 noundef signext 0, ptr noundef %5)
  %.not33 = icmp eq i32 %29, 0
  br i1 %.not33, label %30, label %31

30:                                               ; preds = %27
  call void @ERR_put_error(i32 noundef 12, i32 noundef 0, i32 noundef 158, ptr noundef nonnull @.str, i32 noundef 558) #7
  br label %.thread

31:                                               ; preds = %27
  %32 = load ptr, ptr %8, align 8, !tbaa !20
  %33 = ptrtoint ptr %32 to i64
  %34 = ptrtoint ptr %22 to i64
  %.neg = sub i64 %34, %33
  %35 = load i64, ptr %7, align 8, !tbaa !6
  %36 = add i64 %.neg, %35
  store i64 %36, ptr %7, align 8, !tbaa !6
  %37 = load i8, ptr %9, align 1, !tbaa !25
  %.not34 = icmp eq i8 %37, 0
  br i1 %.not34, label %47, label %38

38:                                               ; preds = %31
  %39 = icmp slt i64 %36, 2
  br i1 %39, label %46, label %40

40:                                               ; preds = %38
  %41 = load i8, ptr %32, align 1, !tbaa !25
  %.not.i = icmp eq i8 %41, 0
  br i1 %.not.i, label %42, label %46

42:                                               ; preds = %40
  %43 = getelementptr inbounds nuw i8, ptr %32, i64 1
  %44 = load i8, ptr %43, align 1, !tbaa !25
  %.not5.i = icmp eq i8 %44, 0
  br i1 %.not5.i, label %asn1_check_eoc.exit, label %46

asn1_check_eoc.exit:                              ; preds = %42
  %45 = getelementptr inbounds nuw i8, ptr %32, i64 2
  br label %51

46:                                               ; preds = %38, %42, %40
  call void @ERR_put_error(i32 noundef 12, i32 noundef 0, i32 noundef 153, ptr noundef nonnull @.str, i32 noundef 566) #7
  br label %53

47:                                               ; preds = %31
  %.not35 = icmp eq i64 %36, 0
  br i1 %.not35, label %51, label %48

48:                                               ; preds = %47
  call void @ERR_put_error(i32 noundef 12, i32 noundef 0, i32 noundef 119, ptr noundef nonnull @.str, i32 noundef 574) #7
  br label %53

.thread:                                          ; preds = %30, %26, %23, %16
  %.1.ph = phi i32 [ %21, %16 ], [ 0, %23 ], [ 0, %26 ], [ 0, %30 ]
  call void @llvm.lifetime.end.p0(i64 1, ptr nonnull %10) #7
  br label %54

49:                                               ; preds = %11
  %50 = tail call fastcc i32 @asn1_template_noexp_d2i(ptr noundef %0, ptr noundef nonnull %1, i64 noundef %2, ptr noundef nonnull %3, i8 noundef signext %4, ptr noundef %5)
  br label %54

51:                                               ; preds = %47, %asn1_check_eoc.exit
  %52 = phi ptr [ %32, %47 ], [ %45, %asn1_check_eoc.exit ]
  call void @llvm.lifetime.end.p0(i64 1, ptr nonnull %10) #7
  store ptr %52, ptr %1, align 8, !tbaa !20
  br label %54

53:                                               ; preds = %46, %48
  call void @llvm.lifetime.end.p0(i64 1, ptr nonnull %10) #7
  call void @ASN1_template_free(ptr noundef nonnull %0, ptr noundef nonnull %3) #7
  br label %54

54:                                               ; preds = %.thread, %6, %53, %51, %49
  %.027 = phi i32 [ 0, %53 ], [ 1, %51 ], [ %50, %49 ], [ 0, %6 ], [ %.1.ph, %.thread ]
  call void @llvm.lifetime.end.p0(i64 1, ptr nonnull %9) #7
  call void @llvm.lifetime.end.p0(i64 8, ptr nonnull %8) #7
  call void @llvm.lifetime.end.p0(i64 8, ptr nonnull %7) #7
  ret i32 %.027
}